target datalayout = "e-m:e-p270:32:32-p271:32:32-p272:64:64-i64:64-i128:128-f80:128-n8:16:32:64-S128"
target triple = "x86_64-unknown-linux-gnu"

%"class.arrow::Status" = type { ptr }
%"union.std::aligned_storage<16, 8>::type" = type { [16 x i8] }
%"union.std::aligned_storage<8, 8>::type" = type { [8 x i8] }
%"class.arrow::Result.72" = type { %"class.arrow::Status", %"class.arrow::internal::AlignedStorage.75" }
%"class.arrow::internal::AlignedStorage.75" = type { %"union.std::aligned_storage<16, 8>::type" }
%"class.arrow::Result.76" = type { %"class.arrow::Status", %"class.arrow::internal::AlignedStorage.79" }
%"class.arrow::internal::AlignedStorage.79" = type { %"union.std::aligned_storage<8, 8>::type" }

; Function Attrs: mustprogress nounwind uwtable
define linkonce_odr noundef ptr @_ZSt7launderIlEPT_S1_(ptr noundef %__p) #1 comdat {
entry:
  %__p.addr = alloca ptr, align 8
  store ptr %__p, ptr %__p.addr, align 8
  %0 = load ptr, ptr %__p.addr, align 8
  ret ptr %0
}

; Function Attrs: mustprogress nounwind uwtable
define linkonce_odr noundef ptr @_ZN5arrow8internal14AlignedStorageIlE3getEv(ptr noundef nonnull align 8 dereferenceable(8) %this) #1 comdat align 2 {
entry:
  %this.addr = alloca ptr, align 8
  store ptr %this, ptr %this.addr, align 8
  %this1 = load ptr, ptr %this.addr, align 8
  %data_ = getelementptr inbounds %"class.arrow::internal::AlignedStorage.79", ptr %this1, i32 0, i32 0
  %call = call noundef ptr @_ZSt7launderIlEPT_S1_(ptr noundef %data_) #16
  ret ptr %call
}

; Function Attrs: mustprogress nounwind uwtable
define linkonce_odr noundef i64 @_ZN5arrow6ResultIlE15MoveValueUnsafeEv(ptr noundef nonnull align 8 dereferenceable(16) %this) #1 comdat align 2 {
entry:
  %this.addr = alloca ptr, align 8
  store ptr %this, ptr %this.addr, align 8
  %this1 = load ptr, ptr %this.addr, align 8
  %storage_ = getelementptr inbounds %"class.arrow::Result.76", ptr %this1, i32 0, i32 1
  %call = call noundef ptr @_ZN5arrow8internal14AlignedStorageIlE3getEv(ptr noundef nonnull align 8 dereferenceable(8) %storage_) #16
  %0 = load i64, ptr %call, align 8
  ret i64 %0
}

; Function Attrs: mustprogress nounwind uwtable
define linkonce_odr noundef zeroext i1 @_ZNK5arrow6Status2okEv(ptr noundef nonnull align 8 dereferenceable(8) %this) #1 comdat align 2 {
entry:
  %this.addr = alloca ptr, align 8
  store ptr %this, ptr %this.addr, align 8
  %this1 = load ptr, ptr %this.addr, align 8
  %state_ = getelementptr inbounds %"class.arrow::Status", ptr %this1, i32 0, i32 0
  %0 = load ptr, ptr %state_, align 8
  %cmp = icmp eq ptr %0, null
  ret i1 %cmp
}

; Function Attrs: mustprogress uwtable
define linkonce_odr noundef i64 @_ZNO5arrow6ResultIlE11ValueUnsafeEv(ptr noundef nonnull align 8 dereferenceable(16) %this) #0 comdat align 2 {
entry:
  %this.addr = alloca ptr, align 8
  store ptr %this, ptr %this.addr, align 8
  %this1 = load ptr, ptr %this.addr, align 8
  %call = call noundef i64 @_ZN5arrow6ResultIlE15MoveValueUnsafeEv(ptr noundef nonnull align 8 dereferenceable(16) %this1)
  ret i64 %call
}

; Function Attrs: mustprogress nounwind uwtable
define linkonce_odr noundef nonnull align 8 dereferenceable(8) ptr @_ZNK5arrow6ResultIlE6statusEv(ptr noundef nonnull align 8 dereferenceable(16) %this) #1 comdat align 2 {
entry:
  %this.addr = alloca ptr, align 8
  store ptr %this, ptr %this.addr, align 8
  %this1 = load ptr, ptr %this.addr, align 8
  %status_ = getelementptr inbounds %"class.arrow::Result.76", ptr %this1, i32 0, i32 0
  ret ptr %status_
}

; Function Attrs: mustprogress nounwind uwtable
define linkonce_odr noundef zeroext i1 @_ZNK5arrow6ResultIlE2okEv(ptr noundef nonnull align 8 dereferenceable(16) %this) #1 comdat align 2 {
entry:
  %this.addr = alloca ptr, align 8
  store ptr %this, ptr %this.addr, align 8
  %this1 = load ptr, ptr %this.addr, align 8
  %status_ = getelementptr inbounds %"class.arrow::Result.76", ptr %this1, i32 0, i32 0
  %call = call noundef zeroext i1 @_ZNK5arrow6Status2okEv(ptr noundef nonnull align 8 dereferenceable(8) %status_)
  ret i1 %call
}

; Function Attrs: mustprogress uwtable
define void @_ZN5arrow3ipc21RecordBatchFileReader4OpenEPNS_2io16RandomAccessFileERKNS0_14IpcReadOptionsE(ptr noalias sret(%"class.arrow::Result.72") align 8 %agg.result, ptr noundef %file, ptr noundef nonnull align 8 dereferenceable(80) %options) #0 align 2 personality ptr @__gxx_personality_v0 {
entry:
  %result.ptr = alloca ptr, align 8
  %file.addr = alloca ptr, align 8
  %options.addr = alloca ptr, align 8
  %_error_or_value62 = alloca ptr, align 8
  %ref.tmp = alloca %"class.arrow::Result.76", align 8
  %exn.slot = alloca ptr, align 8
  %ehselector.slot = alloca i32, align 4
  %cleanup.dest.slot = alloca i32, align 4
  %footer_offset = alloca i64, align 8
  store ptr %agg.result, ptr %result.ptr, align 8
  store ptr %file, ptr %file.addr, align 8
  store ptr %options, ptr %options.addr, align 8
  %0 = load ptr, ptr %file.addr, align 8
  %vtable = load ptr, ptr %0, align 8
  %vfn = getelementptr inbounds ptr, ptr %vtable, i64 9
  %1 = load ptr, ptr %vfn, align 8
  call void %1(ptr sret(%"class.arrow::Result.76") align 8 %ref.tmp, ptr noundef nonnull align 8 dereferenceable(24) %0)
  store ptr %ref.tmp, ptr %_error_or_value62, align 8
  br label %do.body

do.body:                                          ; preds = %entry
  %2 = load ptr, ptr %_error_or_value62, align 8
  %call = invoke noundef zeroext i1 @_ZNK5arrow6ResultIlE2okEv(ptr noundef nonnull align 8 dereferenceable(16) %2)
          to label %invoke.cont unwind label %lpad

invoke.cont:                                      ; preds = %do.body
  %lnot = xor i1 %call, true
  %lnot1 = xor i1 %lnot, true
  %lnot2 = xor i1 %lnot1, true
  br i1 %lnot2, label %if.then, label %if.end

if.then:                                          ; preds = %invoke.cont
  %3 = load ptr, ptr %_error_or_value62, align 8
  %call4 = invoke noundef nonnull align 8 dereferenceable(8) ptr @_ZNK5arrow6ResultIlE6statusEv(ptr noundef nonnull align 8 dereferenceable(16) %3)
          to label %invoke.cont3 unwind label %lpad

invoke.cont3:                                     ; preds = %if.then
  call void @_ZN5arrow6ResultISt10shared_ptrINS_3ipc21RecordBatchFileReaderEEEC2ERKNS_6StatusE(ptr noundef nonnull align 8 dereferenceable(24) %agg.result, ptr noundef nonnull align 8 dereferenceable(8) %call4) #16
  store i32 1, ptr %cleanup.dest.slot, align 4
  br label %cleanup

lpad:                                             ; preds = %invoke.cont5, %do.end, %if.then, %do.body
  %4 = landingpad { ptr, i32 }
          cleanup
  %5 = extractvalue { ptr, i32 } %4, 0
  store ptr %5, ptr %exn.slot, align 8
  %6 = extractvalue { ptr, i32 } %4, 1
  store i32 %6, ptr %ehselector.slot, align 4
  call void @_ZN5arrow6ResultIlED2Ev(ptr noundef nonnull align 8 dereferenceable(16) %ref.tmp) #16
  br label %eh.resume

if.end:                                           ; preds = %invoke.cont
  br label %do.cond

do.cond:                                          ; preds = %if.end
  br label %do.end

do.end:                                           ; preds = %do.cond
  %7 = load ptr, ptr %_error_or_value62, align 8
  %call6 = invoke noundef i64 @_ZNO5arrow6ResultIlE11ValueUnsafeEv(ptr noundef nonnull align 8 dereferenceable(16) %7)
          to label %invoke.cont5 unwind label %lpad

invoke.cont5:                                     ; preds = %do.end
  store i64 %call6, ptr %footer_offset, align 8
  %8 = load ptr, ptr %file.addr, align 8
  %9 = load i64, ptr %footer_offset, align 8
  %10 = load ptr, ptr %options.addr, align 8
  invoke void @_ZN5arrow3ipc21RecordBatchFileReader4OpenEPNS_2io16RandomAccessFileElRKNS0_14IpcReadOptionsE(ptr sret(%"class.arrow::Result.72") align 8 %agg.result, ptr noundef %8, i64 noundef %9, ptr noundef nonnull align 8 dereferenceable(80) %10)
          to label %invoke.cont7 unwind label %lpad

invoke.cont7:                                     ; preds = %invoke.cont5
  store i32 1, ptr %cleanup.dest.slot, align 4
  br label %cleanup

cleanup:                                          ; preds = %invoke.cont7, %invoke.cont3
  call void @_ZN5arrow6ResultIlED2Ev(ptr noundef nonnull align 8 dereferenceable(16) %ref.tmp) #16
  ret void

eh.resume:                                        ; preds = %lpad
  %exn = load ptr, ptr %exn.slot, align 8
  %sel = load i32, ptr %ehselector.slot, align 4
  %lpad.val = insertvalue { ptr, i32 } poison, ptr %exn, 0
  %lpad.val8 = insertvalue { ptr, i32 } %lpad.val, i32 %sel, 1
  resume { ptr, i32 } %lpad.val8
}