; Function Attrs: mustprogress uwtable
define void @_ZN5arrow3ipc21RecordBatchFileReader4OpenEPNS_2io16RandomAccessFileERKNS0_14IpcReadOptionsE(ptr noalias sret(%"class.arrow::Result.72") align 8 %agg.result, ptr noundef %file, ptr noundef nonnull align 8 dereferenceable(80) %options) local_unnamed_addr #0 align 2 personality ptr @__gxx_personality_v0 {
entry:
  %ref.tmp = alloca %"class.arrow::Result.76", align 8
  %vtable = load ptr, ptr %file, align 8
  %vfn = getelementptr inbounds i8, ptr %vtable, i64 72
  %0 = load ptr, ptr %vfn, align 8
  call void %0(ptr nonnull sret(%"class.arrow::Result.76") align 8 %ref.tmp, ptr noundef nonnull align 8 dereferenceable(24) %file)
  %1 = load ptr, ptr %ref.tmp, align 8
  %cmp.i.i = icmp eq ptr %1, null
  br i1 %cmp.i.i, label %invoke.cont5, label %if.then

if.then:                                          ; preds = %entry
  call void @_ZN5arrow6ResultISt10shared_ptrINS_3ipc21RecordBatchFileReaderEEEC2ERKNS_6StatusE(ptr noundef nonnull align 8 dereferenceable(24) %agg.result, ptr noundef nonnull align 8 dereferenceable(8) %ref.tmp) #30
  br label %cleanup

lpad:                                             ; preds = %invoke.cont5
  %2 = landingpad { ptr, i32 }
          cleanup
  call void @_ZN5arrow6ResultIlED2Ev(ptr noundef nonnull align 8 dereferenceable(16) %ref.tmp) #30
  resume { ptr, i32 } %2

invoke.cont5:                                     ; preds = %entry
  %storage_.i.i = getelementptr inbounds i8, ptr %ref.tmp, i64 8
  %3 = load i64, ptr %storage_.i.i, align 8
  invoke void @_ZN5arrow3ipc21RecordBatchFileReader4OpenEPNS_2io16RandomAccessFileElRKNS0_14IpcReadOptionsE(ptr sret(%"class.arrow::Result.72") align 8 %agg.result, ptr noundef nonnull %file, i64 noundef %3, ptr noundef nonnull align 8 dereferenceable(80) %options)
          to label %cleanup unwind label %lpad

cleanup:                                          ; preds = %invoke.cont5, %if.then
  %4 = load ptr, ptr %ref.tmp, align 8
  %cmp.not.i.i = icmp eq ptr %4, null
  br i1 %cmp.not.i.i, label %_ZN5arrow6ResultIlED2Ev.exit, label %delete.notnull.i.i.i

delete.notnull.i.i.i:                             ; preds = %cleanup
  %_M_refcount.i.i.i.i.i.i = getelementptr inbounds i8, ptr %4, i64 48
  %5 = load ptr, ptr %_M_refcount.i.i.i.i.i.i, align 8
  %cmp.not.i.i.i.i.i.i.i = icmp eq ptr %5, null
  br i1 %cmp.not.i.i.i.i.i.i.i, label %_ZN5arrow6Status11DeleteStateEv.exit.i.i, label %if.then.i.i.i.i.i.i.i

if.then.i.i.i.i.i.i.i:                            ; preds = %delete.notnull.i.i.i
  %_M_use_count.i.i.i.i.i.i.i.i = getelementptr inbounds i8, ptr %5, i64 8
  %6 = load atomic i64, ptr %_M_use_count.i.i.i.i.i.i.i.i acquire, align 8
  %cmp.i.i.i.i.i.i.i.i = icmp eq i64 %6, 4294967297
  %7 = trunc i64 %6 to i32
  br i1 %cmp.i.i.i.i.i.i.i.i, label %if.then.i.i.i.i.i.i.i.i, label %if.end.i.i.i.i.i.i.i.i

if.then.i.i.i.i.i.i.i.i:                          ; preds = %if.then.i.i.i.i.i.i.i
  store i32 0, ptr %_M_use_count.i.i.i.i.i.i.i.i, align 8
  %_M_weak_count.i.i.i.i.i.i.i.i = getelementptr inbounds i8, ptr %5, i64 12
  store i32 0, ptr %_M_weak_count.i.i.i.i.i.i.i.i, align 4
  %vtable.i.i.i.i.i.i.i.i = load ptr, ptr %5, align 8
  %vfn.i.i.i.i.i.i.i.i = getelementptr inbounds i8, ptr %vtable.i.i.i.i.i.i.i.i, i64 16
  %8 = load ptr, ptr %vfn.i.i.i.i.i.i.i.i, align 8
  call void %8(ptr noundef nonnull align 8 dereferenceable(16) %5) #30
  br label %if.end8.sink.split.i.i.i.i.i.i.i.i

if.end.i.i.i.i.i.i.i.i:                           ; preds = %if.then.i.i.i.i.i.i.i
  %9 = load i8, ptr @__libc_single_threaded, align 1
  %tobool.i.i.not.i.i.i.i.i.i.i.i = icmp eq i8 %9, 0
  br i1 %tobool.i.i.not.i.i.i.i.i.i.i.i, label %if.else.i.i.i.i.i.i.i.i.i, label %if.then.i.i.i.i.i.i.i.i.i

if.then.i.i.i.i.i.i.i.i.i:                        ; preds = %if.end.i.i.i.i.i.i.i.i
  %add.i.i.i.i.i.i.i.i.i = add nsw i32 %7, -1
  store i32 %add.i.i.i.i.i.i.i.i.i, ptr %_M_use_count.i.i.i.i.i.i.i.i, align 4
  br label %_ZN9__gnu_cxx27__exchange_and_add_dispatchEPii.exit.i.i.i.i.i.i.i.i

if.else.i.i.i.i.i.i.i.i.i:                        ; preds = %if.end.i.i.i.i.i.i.i.i
  %10 = atomicrmw volatile add ptr %_M_use_count.i.i.i.i.i.i.i.i, i32 -1 acq_rel, align 4
  br label %_ZN9__gnu_cxx27__exchange_and_add_dispatchEPii.exit.i.i.i.i.i.i.i.i

_ZN9__gnu_cxx27__exchange_and_add_dispatchEPii.exit.i.i.i.i.i.i.i.i: ; preds = %if.else.i.i.i.i.i.i.i.i.i, %if.then.i.i.i.i.i.i.i.i.i
  %retval.i.0.i.i.i.i.i.i.i.i = phi i32 [ %7, %if.then.i.i.i.i.i.i.i.i.i ], [ %10, %if.else.i.i.i.i.i.i.i.i.i ]
  %cmp6.i.i.i.i.i.i.i.i = icmp eq i32 %retval.i.0.i.i.i.i.i.i.i.i, 1
  br i1 %cmp6.i.i.i.i.i.i.i.i, label %if.then7.i.i.i.i.i.i.i.i, label %_ZN5arrow6Status11DeleteStateEv.exit.i.i

if.then7.i.i.i.i.i.i.i.i:                         ; preds = %_ZN9__gnu_cxx27__exchange_and_add_dispatchEPii.exit.i.i.i.i.i.i.i.i
  %vtable.i.i.i.i.i.i.i.i.i.i = load ptr, ptr %5, align 8
  %vfn.i.i.i.i.i.i.i.i.i.i = getelementptr inbounds i8, ptr %vtable.i.i.i.i.i.i.i.i.i.i, i64 16
  %11 = load ptr, ptr %vfn.i.i.i.i.i.i.i.i.i.i, align 8
  call void %11(ptr noundef nonnull align 8 dereferenceable(16) %5) #30
  %_M_weak_count.i.i.i.i.i.i.i.i.i.i = getelementptr inbounds i8, ptr %5, i64 12
  %12 = load i8, ptr @__libc_single_threaded, align 1
  %tobool.i.i.not.i.i.i.i.i.i.i.i.i.i = icmp eq i8 %12, 0
  br i1 %tobool.i.i.not.i.i.i.i.i.i.i.i.i.i, label %if.else.i.i.i.i.i.i.i.i.i.i.i, label %if.then.i.i.i.i.i.i.i.i.i.i.i

if.then.i.i.i.i.i.i.i.i.i.i.i:                    ; preds = %if.then7.i.i.i.i.i.i.i.i
  %13 = load i32, ptr %_M_weak_count.i.i.i.i.i.i.i.i.i.i, align 4
  %add.i.i.i.i.i.i.i.i.i.i.i = add nsw i32 %13, -1
  store i32 %add.i.i.i.i.i.i.i.i.i.i.i, ptr %_M_weak_count.i.i.i.i.i.i.i.i.i.i, align 4
  br label %_ZN9__gnu_cxx27__exchange_and_add_dispatchEPii.exit.i.i.i.i.i.i.i.i.i.i

if.else.i.i.i.i.i.i.i.i.i.i.i:                    ; preds = %if.then7.i.i.i.i.i.i.i.i
  %14 = atomicrmw volatile add ptr %_M_weak_count.i.i.i.i.i.i.i.i.i.i, i32 -1 acq_rel, align 4
  br label %_ZN9__gnu_cxx27__exchange_and_add_dispatchEPii.exit.i.i.i.i.i.i.i.i.i.i

_ZN9__gnu_cxx27__exchange_and_add_dispatchEPii.exit.i.i.i.i.i.i.i.i.i.i: ; preds = %if.else.i.i.i.i.i.i.i.i.i.i.i, %if.then.i.i.i.i.i.i.i.i.i.i.i
  %retval.i.0.i.i.i.i.i.i.i.i.i.i = phi i32 [ %13, %if.then.i.i.i.i.i.i.i.i.i.i.i ], [ %14, %if.else.i.i.i.i.i.i.i.i.i.i.i ]
  %cmp.i.i.i.i.i.i.i.i.i.i = icmp eq i32 %retval.i.0.i.i.i.i.i.i.i.i.i.i, 1
  br i1 %cmp.i.i.i.i.i.i.i.i.i.i, label %if.end8.sink.split.i.i.i.i.i.i.i.i, label %_ZN5arrow6Status11DeleteStateEv.exit.i.i

if.end8.sink.split.i.i.i.i.i.i.i.i:               ; preds = %_ZN9__gnu_cxx27__exchange_and_add_dispatchEPii.exit.i.i.i.i.i.i.i.i.i.i, %if.then.i.i.i.i.i.i.i.i
  %vtable2.i.i.i.i.i.i.i.i.i.i = load ptr, ptr %5, align 8
  %vfn3.i.i.i.i.i.i.i.i.i.i = getelementptr inbounds i8, ptr %vtable2.i.i.i.i.i.i.i.i.i.i, i64 24
  %15 = load ptr, ptr %vfn3.i.i.i.i.i.i.i.i.i.i, align 8
  call void %15(ptr noundef nonnull align 8 dereferenceable(16) %5) #30
  br label %_ZN5arrow6Status11DeleteStateEv.exit.i.i

_ZN5arrow6Status11DeleteStateEv.exit.i.i:         ; preds = %if.end8.sink.split.i.i.i.i.i.i.i.i, %_ZN9__gnu_cxx27__exchange_and_add_dispatchEPii.exit.i.i.i.i.i.i.i.i.i.i, %_ZN9__gnu_cxx27__exchange_and_add_dispatchEPii.exit.i.i.i.i.i.i.i.i, %delete.notnull.i.i.i
  %msg.i.i.i.i = getelementptr inbounds i8, ptr %4, i64 8
  call void @_ZNSt7__cxx1112basic_stringIcSt11char_traitsIcESaIcEED1Ev(ptr noundef nonnull align 8 dereferenceable(32) %msg.i.i.i.i) #30
  call void @_ZdlPv(ptr noundef nonnull %4) #31
  br label %_ZN5arrow6ResultIlED2Ev.exit

_ZN5arrow6ResultIlED2Ev.exit:                     ; preds = %cleanup, %_ZN5arrow6Status11DeleteStateEv.exit.i.i
  ret void
}